; Function Attrs: nofree norecurse nosync nounwind memory(argmem: readwrite) uwtable
define internal void @y212le_UV_c(ptr noundef writeonly captures(none) %0, ptr noundef writeonly captures(none) %1, ptr readnone captures(none) %2, ptr noundef readonly captures(none) %3, ptr readnone captures(none) %4, i32 noundef %5, ptr readnone captures(none) %6, ptr readnone captures(none) %7) #1 {
  %9 = icmp sgt i32 %5, 0
  br i1 %9, label %.lr.ph.preheader, label %._crit_edge

.lr.ph.preheader:                                 ; preds = %8
  %wide.trip.count = zext nneg i32 %5 to i64
  br label %.lr.ph

.lr.ph:                                           ; preds = %.lr.ph.preheader, %.lr.ph
  %indvars.iv = phi i64 [ 0, %.lr.ph.preheader ], [ %indvars.iv.next, %.lr.ph ]
  %10 = shl nsw i64 %indvars.iv, 3
  %11 = getelementptr inbounds nuw i8, ptr %3, i64 %10
  %12 = getelementptr inbounds nuw i8, ptr %11, i64 2
  %13 = load i16, ptr %12, align 1, !tbaa !34
  %14 = lshr i16 %13, 4
  %15 = shl nuw nsw i64 %indvars.iv, 1
  %16 = getelementptr inbounds nuw i8, ptr %0, i64 %15
  store i16 %14, ptr %16, align 1, !tbaa !34
  %17 = getelementptr inbounds nuw i8, ptr %11, i64 6
  %18 = load i16, ptr %17, align 1, !tbaa !34
  %19 = lshr i16 %18, 4
  %20 = getelementptr inbounds nuw i8, ptr %1, i64 %15
  store i16 %19, ptr %20, align 1, !tbaa !34
  %indvars.iv.next = add nuw nsw i64 %indvars.iv, 1
  %exitcond.not = icmp eq i64 %indvars.iv.next, %wide.trip.count
  br i1 %exitcond.not, label %._crit_edge, label %.lr.ph, !llvm.loop !73

._crit_edge:                                      ; preds = %.lr.ph, %8
  ret void
}